; Function Attrs: nounwind uwtable
define i32 @nghttp2_submit_trailer(ptr noundef %0, i32 noundef %1, ptr noundef %2, i64 noundef %3) local_unnamed_addr #0 {
  %5 = icmp slt i32 %1, 1
  br i1 %5, label %8, label %6

6:                                                ; preds = %4
  %7 = tail call fastcc i32 @submit_headers_shared_nva(ptr noundef %0, i8 noundef zeroext 1, i32 noundef %1, ptr noundef %2, i64 noundef %3, ptr noundef null, ptr noundef null)
  br label %8

8:                                                ; preds = %4, %6
  %.0 = phi i32 [ %7, %6 ], [ -501, %4 ]
  ret i32 %.0
}